; ModuleID = '21/254.c'
source_filename = "21/254.c"
target datalayout = "e-m:e-p270:32:32-p271:32:32-p272:64:64-i64:64-f80:128-n8:16:32:64-S128"
target triple = "x86_64-pc-linux-gnu"

@.str = private unnamed_addr constant [3 x i8] c"%d\00", align 1
@.str.1 = private unnamed_addr constant [3 x i8] c"%f\00", align 1
@.str.2 = private unnamed_addr constant [4 x i8] c"%d\0A\00", align 1
@.str.3 = private unnamed_addr constant [7 x i8] c"%d,%d\0A\00", align 1

; Function Attrs: noinline nounwind uwtable
define dso_local i32 @main() #0 {
  %1 = alloca i32, align 4
  %2 = alloca i32, align 4
  %3 = alloca i32, align 4
  %4 = alloca i32, align 4
  %5 = alloca float, align 4
  %6 = alloca float, align 4
  %7 = alloca float, align 4
  %8 = alloca [100 x float], align 16
  store i32 0, i32* %1, align 4
  store float 0.000000e+00, float* %7, align 4
  %9 = call i32 (i8*, ...) @__isoc99_scanf(i8* getelementptr inbounds ([3 x i8], [3 x i8]* @.str, i64 0, i64 0), i32* %2)
  store i32 0, i32* %3, align 4
  br label %10

10:                                               ; preds = %25, %0
  %11 = load i32, i32* %3, align 4
  %12 = load i32, i32* %2, align 4
  %13 = icmp slt i32 %11, %12
  br i1 %13, label %14, label %28

14:                                               ; preds = %10
  %15 = load i32, i32* %3, align 4
  %16 = sext i32 %15 to i64
  %17 = getelementptr inbounds [100 x float], [100 x float]* %8, i64 0, i64 %16
  %18 = call i32 (i8*, ...) @__isoc99_scanf(i8* getelementptr inbounds ([3 x i8], [3 x i8]* @.str.1, i64 0, i64 0), float* %17)
  %19 = load i32, i32* %3, align 4
  %20 = sext i32 %19 to i64
  %21 = getelementptr inbounds [100 x float], [100 x float]* %8, i64 0, i64 %20
  %22 = load float, float* %21, align 4
  %23 = load float, float* %7, align 4
  %24 = fadd float %23, %22
  store float %24, float* %7, align 4
  br label %25

25:                                               ; preds = %14
  %26 = load i32, i32* %3, align 4
  %27 = add nsw i32 %26, 1
  store i32 %27, i32* %3, align 4
  br label %10

28:                                               ; preds = %10
  %29 = load float, float* %7, align 4
  %30 = load i32, i32* %2, align 4
  %31 = sitofp i32 %30 to float
  %32 = fdiv float %29, %31
  store float %32, float* %5, align 4
  store i32 0, i32* %3, align 4
  br label %33

33:                                               ; preds = %77, %28
  %34 = load i32, i32* %3, align 4
  %35 = load i32, i32* %2, align 4
  %36 = icmp slt i32 %34, %35
  br i1 %36, label %37, label %80

37:                                               ; preds = %33
  store i32 0, i32* %4, align 4
  br label %38

38:                                               ; preds = %73, %37
  %39 = load i32, i32* %4, align 4
  %40 = load i32, i32* %2, align 4
  %41 = sub nsw i32 %40, 1
  %42 = icmp slt i32 %39, %41
  br i1 %42, label %43, label %76

43:                                               ; preds = %38
  %44 = load i32, i32* %4, align 4
  %45 = sext i32 %44 to i64
  %46 = getelementptr inbounds [100 x float], [100 x float]* %8, i64 0, i64 %45
  %47 = load float, float* %46, align 4
  %48 = load i32, i32* %4, align 4
  %49 = add nsw i32 %48, 1
  %50 = sext i32 %49 to i64
  %51 = getelementptr inbounds [100 x float], [100 x float]* %8, i64 0, i64 %50
  %52 = load float, float* %51, align 4
  %53 = fcmp ogt float %47, %52
  br i1 %53, label %54, label %72

54:                                               ; preds = %43
  %55 = load i32, i32* %4, align 4
  %56 = sext i32 %55 to i64
  %57 = getelementptr inbounds [100 x float], [100 x float]* %8, i64 0, i64 %56
  %58 = load float, float* %57, align 4
  store float %58, float* %6, align 4
  %59 = load i32, i32* %4, align 4
  %60 = add nsw i32 %59, 1
  %61 = sext i32 %60 to i64
  %62 = getelementptr inbounds [100 x float], [100 x float]* %8, i64 0, i64 %61
  %63 = load float, float* %62, align 4
  %64 = load i32, i32* %4, align 4
  %65 = sext i32 %64 to i64
  %66 = getelementptr inbounds [100 x float], [100 x float]* %8, i64 0, i64 %65
  store float %63, float* %66, align 4
  %67 = load float, float* %6, align 4
  %68 = load i32, i32* %4, align 4
  %69 = add nsw i32 %68, 1
  %70 = sext i32 %69 to i64
  %71 = getelementptr inbounds [100 x float], [100 x float]* %8, i64 0, i64 %70
  store float %67, float* %71, align 4
  br label %72

72:                                               ; preds = %54, %43
  br label %73

73:                                               ; preds = %72
  %74 = load i32, i32* %4, align 4
  %75 = add nsw i32 %74, 1
  store i32 %75, i32* %4, align 4
  br label %38

76:                                               ; preds = %38
  br label %77

77:                                               ; preds = %76
  %78 = load i32, i32* %3, align 4
  %79 = add nsw i32 %78, 1
  store i32 %79, i32* %3, align 4
  br label %33

80:                                               ; preds = %33
  %81 = load float, float* %5, align 4
  %82 = getelementptr inbounds [100 x float], [100 x float]* %8, i64 0, i64 0
  %83 = load float, float* %82, align 16
  %84 = fsub float %81, %83
  %85 = load i32, i32* %2, align 4
  %86 = sub nsw i32 %85, 1
  %87 = sext i32 %86 to i64
  %88 = getelementptr inbounds [100 x float], [100 x float]* %8, i64 0, i64 %87
  %89 = load float, float* %88, align 4
  %90 = load float, float* %5, align 4
  %91 = fsub float %89, %90
  %92 = fcmp olt float %84, %91
  br i1 %92, label %93, label %101

93:                                               ; preds = %80
  %94 = load i32, i32* %2, align 4
  %95 = sub nsw i32 %94, 1
  %96 = sext i32 %95 to i64
  %97 = getelementptr inbounds [100 x float], [100 x float]* %8, i64 0, i64 %96
  %98 = load float, float* %97, align 4
  %99 = fptosi float %98 to i32
  %100 = call i32 (i8*, ...) @printf(i8* getelementptr inbounds ([4 x i8], [4 x i8]* @.str.2, i64 0, i64 0), i32 %99)
  br label %131

101:                                              ; preds = %80
  %102 = load float, float* %5, align 4
  %103 = getelementptr inbounds [100 x float], [100 x float]* %8, i64 0, i64 0
  %104 = load float, float* %103, align 16
  %105 = fsub float %102, %104
  %106 = load i32, i32* %2, align 4
  %107 = sub nsw i32 %106, 1
  %108 = sext i32 %107 to i64
  %109 = getelementptr inbounds [100 x float], [100 x float]* %8, i64 0, i64 %108
  %110 = load float, float* %109, align 4
  %111 = load float, float* %5, align 4
  %112 = fsub float %110, %111
  %113 = fcmp ogt float %105, %112
  br i1 %113, label %114, label %119

114:                                              ; preds = %101
  %115 = getelementptr inbounds [100 x float], [100 x float]* %8, i64 0, i64 0
  %116 = load float, float* %115, align 16
  %117 = fptosi float %116 to i32
  %118 = call i32 (i8*, ...) @printf(i8* getelementptr inbounds ([4 x i8], [4 x i8]* @.str.2, i64 0, i64 0), i32 %117)
  br label %130

119:                                              ; preds = %101
  %120 = getelementptr inbounds [100 x float], [100 x float]* %8, i64 0, i64 0
  %121 = load float, float* %120, align 16
  %122 = fptosi float %121 to i32
  %123 = load i32, i32* %2, align 4
  %124 = sub nsw i32 %123, 1
  %125 = sext i32 %124 to i64
  %126 = getelementptr inbounds [100 x float], [100 x float]* %8, i64 0, i64 %125
  %127 = load float, float* %126, align 4
  %128 = fptosi float %127 to i32
  %129 = call i32 (i8*, ...) @printf(i8* getelementptr inbounds ([7 x i8], [7 x i8]* @.str.3, i64 0, i64 0), i32 %122, i32 %128)
  br label %130

130:                                              ; preds = %119, %114
  br label %131

131:                                              ; preds = %130, %93
  %132 = load i32, i32* %1, align 4
  ret i32 %132
}

declare dso_local i32 @__isoc99_scanf(i8*, ...) #1

declare dso_local i32 @printf(i8*, ...) #1


!llvm.module.flags = !{!0}
!llvm.ident = !{!1}

!0 = !{i32 1, !"wchar_size", i32 4}
!1 = !{!"clang version 10.0.0-4ubuntu1 "}
